; Function Attrs: mustprogress nofree norecurse nosync nounwind willreturn memory(readwrite, inaccessiblemem: none) uwtable
define hidden noundef i32 @_ZN5ceres8internal42GradientProblemSolverStateUpdatingCallbackclERKNS_16IterationSummaryE(ptr noundef nonnull readonly align 8 captures(none) dereferenceable(32) %0, ptr noundef nonnull readonly align 8 captures(none) dereferenceable(120) %1) unnamed_addr #7 align 2 {
  %3 = getelementptr inbounds nuw i8, ptr %1, i64 6
  %4 = load i8, ptr %3, align 2, !tbaa !19, !range !23, !noundef !24
  %5 = trunc nuw i8 %4 to i1
  br i1 %5, label %6, label %_ZSt6copy_nIPKdiPdET1_T_T0_S3_.exit

6:                                                ; preds = %2
  %7 = getelementptr inbounds nuw i8, ptr %0, i64 8
  %8 = load i32, ptr %7, align 8, !tbaa !14
  %9 = icmp slt i32 %8, 1
  br i1 %9, label %_ZSt6copy_nIPKdiPdET1_T_T0_S3_.exit, label %_ZSt8__copy_nIPKdiPdET1_T_T0_S3_St26random_access_iterator_tag.exit.i

_ZSt8__copy_nIPKdiPdET1_T_T0_S3_St26random_access_iterator_tag.exit.i: ; preds = %6
  %10 = getelementptr inbounds nuw i8, ptr %0, i64 24
  %11 = load ptr, ptr %10, align 8, !tbaa !18
  %12 = getelementptr inbounds nuw i8, ptr %0, i64 16
  %13 = load ptr, ptr %12, align 8, !tbaa !17
  %14 = zext nneg i32 %8 to i64
  %.idx.i.i = shl nuw nsw i64 %14, 3
  tail call void @llvm.memmove.p0.p0.i64(ptr align 8 %11, ptr align 8 %13, i64 %.idx.i.i, i1 false)
  br label %_ZSt6copy_nIPKdiPdET1_T_T0_S3_.exit

_ZSt6copy_nIPKdiPdET1_T_T0_S3_.exit:              ; preds = %_ZSt8__copy_nIPKdiPdET1_T_T0_S3_St26random_access_iterator_tag.exit.i, %6, %2
  ret i32 0
}